target datalayout = "e-m:e-p270:32:32-p271:32:32-p272:64:64-i64:64-i128:128-f80:128-n8:16:32:64-S128"
target triple = "x86_64-pc-linux-gnu"

%struct.AVChannelLayout = type { i32, i32, %union.anon.1, ptr }
%union.anon.1 = type { i64 }
%struct.AVRational = type { i32, i32 }
%struct.FillBordersContext = type { ptr, i32, i32, i32, i32, i32, i32, i32, [4 x %struct.Borders], [4 x i32], [4 x i32], [4 x i8], [4 x i8], [4 x i8], ptr }
%struct.Borders = type { i32, i32, i32, i32 }
%struct.AVFrame = type { [8 x ptr], [8 x i32], ptr, i32, i32, i32, i32, i32, %struct.AVRational, i64, i64, %struct.AVRational, i32, ptr, i32, i32, [8 x ptr], ptr, i32, ptr, i32, i32, i32, i32, i32, i32, i32, i64, ptr, i32, ptr, ptr, i64, i64, i64, i64, ptr, %struct.AVChannelLayout, i64 }

; Function Attrs: nounwind uwtable
define internal void @wrap_borders8(ptr noundef %0, ptr noundef %1) #0 {
  %3 = alloca ptr, align 8
  %4 = alloca ptr, align 8
  %5 = alloca i32, align 4
  %6 = alloca i32, align 4
  %7 = alloca i32, align 4
  %8 = alloca ptr, align 8
  %9 = alloca i64, align 8
  store ptr %0, ptr %3, align 8, !tbaa !37
  store ptr %1, ptr %4, align 8, !tbaa !26
  call void @llvm.lifetime.start.p0(i64 4, ptr %5) #8
  call void @llvm.lifetime.start.p0(i64 4, ptr %6) #8
  call void @llvm.lifetime.start.p0(i64 4, ptr %7) #8
  store i32 0, ptr %5, align 4, !tbaa !11
  br label %10

10:                                               ; preds = %293, %2
  %11 = load i32, ptr %5, align 4, !tbaa !11
  %12 = load ptr, ptr %3, align 8, !tbaa !37
  %13 = getelementptr inbounds nuw %struct.FillBordersContext, ptr %12, i32 0, i32 6
  %14 = load i32, ptr %13, align 4, !tbaa !48
  %15 = icmp slt i32 %11, %14
  br i1 %15, label %16, label %296

16:                                               ; preds = %10
  call void @llvm.lifetime.start.p0(i64 8, ptr %8) #8
  %17 = load ptr, ptr %4, align 8, !tbaa !26
  %18 = getelementptr inbounds nuw %struct.AVFrame, ptr %17, i32 0, i32 0
  %19 = load i32, ptr %5, align 4, !tbaa !11
  %20 = sext i32 %19 to i64
  %21 = getelementptr inbounds [8 x ptr], ptr %18, i64 0, i64 %20
  %22 = load ptr, ptr %21, align 8, !tbaa !9
  store ptr %22, ptr %8, align 8, !tbaa !9
  call void @llvm.lifetime.start.p0(i64 8, ptr %9) #8
  %23 = load ptr, ptr %4, align 8, !tbaa !26
  %24 = getelementptr inbounds nuw %struct.AVFrame, ptr %23, i32 0, i32 1
  %25 = load i32, ptr %5, align 4, !tbaa !11
  %26 = sext i32 %25 to i64
  %27 = getelementptr inbounds [8 x i32], ptr %24, i64 0, i64 %26
  %28 = load i32, ptr %27, align 4, !tbaa !11
  %29 = sext i32 %28 to i64
  store i64 %29, ptr %9, align 8, !tbaa !70
  %30 = load ptr, ptr %3, align 8, !tbaa !37
  %31 = getelementptr inbounds nuw %struct.FillBordersContext, ptr %30, i32 0, i32 8
  %32 = load i32, ptr %5, align 4, !tbaa !11
  %33 = sext i32 %32 to i64
  %34 = getelementptr inbounds [4 x %struct.Borders], ptr %31, i64 0, i64 %33
  %35 = getelementptr inbounds nuw %struct.Borders, ptr %34, i32 0, i32 2
  %36 = load i32, ptr %35, align 4, !tbaa !63
  store i32 %36, ptr %6, align 4, !tbaa !11
  br label %37

37:                                               ; preds = %175, %16
  %38 = load i32, ptr %6, align 4, !tbaa !11
  %39 = load ptr, ptr %3, align 8, !tbaa !37
  %40 = getelementptr inbounds nuw %struct.FillBordersContext, ptr %39, i32 0, i32 10
  %41 = load i32, ptr %5, align 4, !tbaa !11
  %42 = sext i32 %41 to i64
  %43 = getelementptr inbounds [4 x i32], ptr %40, i64 0, i64 %42
  %44 = load i32, ptr %43, align 4, !tbaa !11
  %45 = load ptr, ptr %3, align 8, !tbaa !37
  %46 = getelementptr inbounds nuw %struct.FillBordersContext, ptr %45, i32 0, i32 8
  %47 = load i32, ptr %5, align 4, !tbaa !11
  %48 = sext i32 %47 to i64
  %49 = getelementptr inbounds [4 x %struct.Borders], ptr %46, i64 0, i64 %48
  %50 = getelementptr inbounds nuw %struct.Borders, ptr %49, i32 0, i32 3
  %51 = load i32, ptr %50, align 4, !tbaa !64
  %52 = sub nsw i32 %44, %51
  %53 = icmp slt i32 %38, %52
  br i1 %53, label %54, label %178

54:                                               ; preds = %37
  store i32 0, ptr %7, align 4, !tbaa !11
  br label %55

55:                                               ; preds = %111, %54
  %56 = load i32, ptr %7, align 4, !tbaa !11
  %57 = load ptr, ptr %3, align 8, !tbaa !37
  %58 = getelementptr inbounds nuw %struct.FillBordersContext, ptr %57, i32 0, i32 8
  %59 = load i32, ptr %5, align 4, !tbaa !11
  %60 = sext i32 %59 to i64
  %61 = getelementptr inbounds [4 x %struct.Borders], ptr %58, i64 0, i64 %60
  %62 = getelementptr inbounds nuw %struct.Borders, ptr %61, i32 0, i32 0
  %63 = load i32, ptr %62, align 4, !tbaa !60
  %64 = icmp slt i32 %56, %63
  br i1 %64, label %65, label %114

65:                                               ; preds = %55
  %66 = load ptr, ptr %8, align 8, !tbaa !9
  %67 = load i32, ptr %6, align 4, !tbaa !11
  %68 = sext i32 %67 to i64
  %69 = load i64, ptr %9, align 8, !tbaa !70
  %70 = mul nsw i64 %68, %69
  %71 = load ptr, ptr %3, align 8, !tbaa !37
  %72 = getelementptr inbounds nuw %struct.FillBordersContext, ptr %71, i32 0, i32 9
  %73 = load i32, ptr %5, align 4, !tbaa !11
  %74 = sext i32 %73 to i64
  %75 = getelementptr inbounds [4 x i32], ptr %72, i64 0, i64 %74
  %76 = load i32, ptr %75, align 4, !tbaa !11
  %77 = sext i32 %76 to i64
  %78 = add nsw i64 %70, %77
  %79 = load ptr, ptr %3, align 8, !tbaa !37
  %80 = getelementptr inbounds nuw %struct.FillBordersContext, ptr %79, i32 0, i32 8
  %81 = load i32, ptr %5, align 4, !tbaa !11
  %82 = sext i32 %81 to i64
  %83 = getelementptr inbounds [4 x %struct.Borders], ptr %80, i64 0, i64 %82
  %84 = getelementptr inbounds nuw %struct.Borders, ptr %83, i32 0, i32 1
  %85 = load i32, ptr %84, align 4, !tbaa !62
  %86 = sext i32 %85 to i64
  %87 = sub nsw i64 %78, %86
  %88 = load ptr, ptr %3, align 8, !tbaa !37
  %89 = getelementptr inbounds nuw %struct.FillBordersContext, ptr %88, i32 0, i32 8
  %90 = load i32, ptr %5, align 4, !tbaa !11
  %91 = sext i32 %90 to i64
  %92 = getelementptr inbounds [4 x %struct.Borders], ptr %89, i64 0, i64 %91
  %93 = getelementptr inbounds nuw %struct.Borders, ptr %92, i32 0, i32 0
  %94 = load i32, ptr %93, align 4, !tbaa !60
  %95 = sext i32 %94 to i64
  %96 = sub nsw i64 %87, %95
  %97 = load i32, ptr %7, align 4, !tbaa !11
  %98 = sext i32 %97 to i64
  %99 = add nsw i64 %96, %98
  %100 = getelementptr inbounds i8, ptr %66, i64 %99
  %101 = load i8, ptr %100, align 1, !tbaa !66
  %102 = load ptr, ptr %8, align 8, !tbaa !9
  %103 = load i32, ptr %6, align 4, !tbaa !11
  %104 = sext i32 %103 to i64
  %105 = load i64, ptr %9, align 8, !tbaa !70
  %106 = mul nsw i64 %104, %105
  %107 = load i32, ptr %7, align 4, !tbaa !11
  %108 = sext i32 %107 to i64
  %109 = add nsw i64 %106, %108
  %110 = getelementptr inbounds i8, ptr %102, i64 %109
  store i8 %101, ptr %110, align 1, !tbaa !66
  br label %111

111:                                              ; preds = %65
  %112 = load i32, ptr %7, align 4, !tbaa !11
  %113 = add nsw i32 %112, 1
  store i32 %113, ptr %7, align 4, !tbaa !11
  br label %55, !llvm.loop !121

114:                                              ; preds = %55
  store i32 0, ptr %7, align 4, !tbaa !11
  br label %115

115:                                              ; preds = %171, %114
  %116 = load i32, ptr %7, align 4, !tbaa !11
  %117 = load ptr, ptr %3, align 8, !tbaa !37
  %118 = getelementptr inbounds nuw %struct.FillBordersContext, ptr %117, i32 0, i32 8
  %119 = load i32, ptr %5, align 4, !tbaa !11
  %120 = sext i32 %119 to i64
  %121 = getelementptr inbounds [4 x %struct.Borders], ptr %118, i64 0, i64 %120
  %122 = getelementptr inbounds nuw %struct.Borders, ptr %121, i32 0, i32 1
  %123 = load i32, ptr %122, align 4, !tbaa !62
  %124 = icmp slt i32 %116, %123
  br i1 %124, label %125, label %174

125:                                              ; preds = %115
  %126 = load ptr, ptr %8, align 8, !tbaa !9
  %127 = load i32, ptr %6, align 4, !tbaa !11
  %128 = sext i32 %127 to i64
  %129 = load i64, ptr %9, align 8, !tbaa !70
  %130 = mul nsw i64 %128, %129
  %131 = load ptr, ptr %3, align 8, !tbaa !37
  %132 = getelementptr inbounds nuw %struct.FillBordersContext, ptr %131, i32 0, i32 8
  %133 = load i32, ptr %5, align 4, !tbaa !11
  %134 = sext i32 %133 to i64
  %135 = getelementptr inbounds [4 x %struct.Borders], ptr %132, i64 0, i64 %134
  %136 = getelementptr inbounds nuw %struct.Borders, ptr %135, i32 0, i32 0
  %137 = load i32, ptr %136, align 4, !tbaa !60
  %138 = sext i32 %137 to i64
  %139 = add nsw i64 %130, %138
  %140 = load i32, ptr %7, align 4, !tbaa !11
  %141 = sext i32 %140 to i64
  %142 = add nsw i64 %139, %141
  %143 = getelementptr inbounds i8, ptr %126, i64 %142
  %144 = load i8, ptr %143, align 1, !tbaa !66
  %145 = load ptr, ptr %8, align 8, !tbaa !9
  %146 = load i32, ptr %6, align 4, !tbaa !11
  %147 = sext i32 %146 to i64
  %148 = load i64, ptr %9, align 8, !tbaa !70
  %149 = mul nsw i64 %147, %148
  %150 = load ptr, ptr %3, align 8, !tbaa !37
  %151 = getelementptr inbounds nuw %struct.FillBordersContext, ptr %150, i32 0, i32 9
  %152 = load i32, ptr %5, align 4, !tbaa !11
  %153 = sext i32 %152 to i64
  %154 = getelementptr inbounds [4 x i32], ptr %151, i64 0, i64 %153
  %155 = load i32, ptr %154, align 4, !tbaa !11
  %156 = sext i32 %155 to i64
  %157 = add nsw i64 %149, %156
  %158 = load ptr, ptr %3, align 8, !tbaa !37
  %159 = getelementptr inbounds nuw %struct.FillBordersContext, ptr %158, i32 0, i32 8
  %160 = load i32, ptr %5, align 4, !tbaa !11
  %161 = sext i32 %160 to i64
  %162 = getelementptr inbounds [4 x %struct.Borders], ptr %159, i64 0, i64 %161
  %163 = getelementptr inbounds nuw %struct.Borders, ptr %162, i32 0, i32 1
  %164 = load i32, ptr %163, align 4, !tbaa !62
  %165 = sext i32 %164 to i64
  %166 = sub nsw i64 %157, %165
  %167 = load i32, ptr %7, align 4, !tbaa !11
  %168 = sext i32 %167 to i64
  %169 = add nsw i64 %166, %168
  %170 = getelementptr inbounds i8, ptr %145, i64 %169
  store i8 %144, ptr %170, align 1, !tbaa !66
  br label %171

171:                                              ; preds = %125
  %172 = load i32, ptr %7, align 4, !tbaa !11
  %173 = add nsw i32 %172, 1
  store i32 %173, ptr %7, align 4, !tbaa !11
  br label %115, !llvm.loop !122

174:                                              ; preds = %115
  br label %175

175:                                              ; preds = %174
  %176 = load i32, ptr %6, align 4, !tbaa !11
  %177 = add nsw i32 %176, 1
  store i32 %177, ptr %6, align 4, !tbaa !11
  br label %37, !llvm.loop !123

178:                                              ; preds = %37
  store i32 0, ptr %6, align 4, !tbaa !11
  br label %179

179:                                              ; preds = %232, %178
  %180 = load i32, ptr %6, align 4, !tbaa !11
  %181 = load ptr, ptr %3, align 8, !tbaa !37
  %182 = getelementptr inbounds nuw %struct.FillBordersContext, ptr %181, i32 0, i32 8
  %183 = load i32, ptr %5, align 4, !tbaa !11
  %184 = sext i32 %183 to i64
  %185 = getelementptr inbounds [4 x %struct.Borders], ptr %182, i64 0, i64 %184
  %186 = getelementptr inbounds nuw %struct.Borders, ptr %185, i32 0, i32 2
  %187 = load i32, ptr %186, align 4, !tbaa !63
  %188 = icmp slt i32 %180, %187
  br i1 %188, label %189, label %235

189:                                              ; preds = %179
  %190 = load ptr, ptr %8, align 8, !tbaa !9
  %191 = load i32, ptr %6, align 4, !tbaa !11
  %192 = sext i32 %191 to i64
  %193 = load i64, ptr %9, align 8, !tbaa !70
  %194 = mul nsw i64 %192, %193
  %195 = getelementptr inbounds i8, ptr %190, i64 %194
  %196 = load ptr, ptr %8, align 8, !tbaa !9
  %197 = load ptr, ptr %3, align 8, !tbaa !37
  %198 = getelementptr inbounds nuw %struct.FillBordersContext, ptr %197, i32 0, i32 10
  %199 = load i32, ptr %5, align 4, !tbaa !11
  %200 = sext i32 %199 to i64
  %201 = getelementptr inbounds [4 x i32], ptr %198, i64 0, i64 %200
  %202 = load i32, ptr %201, align 4, !tbaa !11
  %203 = load ptr, ptr %3, align 8, !tbaa !37
  %204 = getelementptr inbounds nuw %struct.FillBordersContext, ptr %203, i32 0, i32 8
  %205 = load i32, ptr %5, align 4, !tbaa !11
  %206 = sext i32 %205 to i64
  %207 = getelementptr inbounds [4 x %struct.Borders], ptr %204, i64 0, i64 %206
  %208 = getelementptr inbounds nuw %struct.Borders, ptr %207, i32 0, i32 3
  %209 = load i32, ptr %208, align 4, !tbaa !64
  %210 = sub nsw i32 %202, %209
  %211 = load ptr, ptr %3, align 8, !tbaa !37
  %212 = getelementptr inbounds nuw %struct.FillBordersContext, ptr %211, i32 0, i32 8
  %213 = load i32, ptr %5, align 4, !tbaa !11
  %214 = sext i32 %213 to i64
  %215 = getelementptr inbounds [4 x %struct.Borders], ptr %212, i64 0, i64 %214
  %216 = getelementptr inbounds nuw %struct.Borders, ptr %215, i32 0, i32 2
  %217 = load i32, ptr %216, align 4, !tbaa !63
  %218 = sub nsw i32 %210, %217
  %219 = load i32, ptr %6, align 4, !tbaa !11
  %220 = add nsw i32 %218, %219
  %221 = sext i32 %220 to i64
  %222 = load i64, ptr %9, align 8, !tbaa !70
  %223 = mul nsw i64 %221, %222
  %224 = getelementptr inbounds i8, ptr %196, i64 %223
  %225 = load ptr, ptr %3, align 8, !tbaa !37
  %226 = getelementptr inbounds nuw %struct.FillBordersContext, ptr %225, i32 0, i32 9
  %227 = load i32, ptr %5, align 4, !tbaa !11
  %228 = sext i32 %227 to i64
  %229 = getelementptr inbounds [4 x i32], ptr %226, i64 0, i64 %228
  %230 = load i32, ptr %229, align 4, !tbaa !11
  %231 = sext i32 %230 to i64
  call void @llvm.memcpy.p0.p0.i64(ptr align 1 %195, ptr align 1 %224, i64 %231, i1 false)
  br label %232

232:                                              ; preds = %189
  %233 = load i32, ptr %6, align 4, !tbaa !11
  %234 = add nsw i32 %233, 1
  store i32 %234, ptr %6, align 4, !tbaa !11
  br label %179, !llvm.loop !124

235:                                              ; preds = %179
  store i32 0, ptr %6, align 4, !tbaa !11
  br label %236

236:                                              ; preds = %289, %235
  %237 = load i32, ptr %6, align 4, !tbaa !11
  %238 = load ptr, ptr %3, align 8, !tbaa !37
  %239 = getelementptr inbounds nuw %struct.FillBordersContext, ptr %238, i32 0, i32 8
  %240 = load i32, ptr %5, align 4, !tbaa !11
  %241 = sext i32 %240 to i64
  %242 = getelementptr inbounds [4 x %struct.Borders], ptr %239, i64 0, i64 %241
  %243 = getelementptr inbounds nuw %struct.Borders, ptr %242, i32 0, i32 3
  %244 = load i32, ptr %243, align 4, !tbaa !64
  %245 = icmp slt i32 %237, %244
  br i1 %245, label %246, label %292

246:                                              ; preds = %236
  %247 = load ptr, ptr %8, align 8, !tbaa !9
  %248 = load ptr, ptr %3, align 8, !tbaa !37
  %249 = getelementptr inbounds nuw %struct.FillBordersContext, ptr %248, i32 0, i32 10
  %250 = load i32, ptr %5, align 4, !tbaa !11
  %251 = sext i32 %250 to i64
  %252 = getelementptr inbounds [4 x i32], ptr %249, i64 0, i64 %251
  %253 = load i32, ptr %252, align 4, !tbaa !11
  %254 = load ptr, ptr %3, align 8, !tbaa !37
  %255 = getelementptr inbounds nuw %struct.FillBordersContext, ptr %254, i32 0, i32 8
  %256 = load i32, ptr %5, align 4, !tbaa !11
  %257 = sext i32 %256 to i64
  %258 = getelementptr inbounds [4 x %struct.Borders], ptr %255, i64 0, i64 %257
  %259 = getelementptr inbounds nuw %struct.Borders, ptr %258, i32 0, i32 3
  %260 = load i32, ptr %259, align 4, !tbaa !64
  %261 = sub nsw i32 %253, %260
  %262 = load i32, ptr %6, align 4, !tbaa !11
  %263 = add nsw i32 %261, %262
  %264 = sext i32 %263 to i64
  %265 = load i64, ptr %9, align 8, !tbaa !70
  %266 = mul nsw i64 %264, %265
  %267 = getelementptr inbounds i8, ptr %247, i64 %266
  %268 = load ptr, ptr %8, align 8, !tbaa !9
  %269 = load ptr, ptr %3, align 8, !tbaa !37
  %270 = getelementptr inbounds nuw %struct.FillBordersContext, ptr %269, i32 0, i32 8
  %271 = load i32, ptr %5, align 4, !tbaa !11
  %272 = sext i32 %271 to i64
  %273 = getelementptr inbounds [4 x %struct.Borders], ptr %270, i64 0, i64 %272
  %274 = getelementptr inbounds nuw %struct.Borders, ptr %273, i32 0, i32 2
  %275 = load i32, ptr %274, align 4, !tbaa !63
  %276 = load i32, ptr %6, align 4, !tbaa !11
  %277 = add nsw i32 %275, %276
  %278 = sext i32 %277 to i64
  %279 = load i64, ptr %9, align 8, !tbaa !70
  %280 = mul nsw i64 %278, %279
  %281 = getelementptr inbounds i8, ptr %268, i64 %280
  %282 = load ptr, ptr %3, align 8, !tbaa !37
  %283 = getelementptr inbounds nuw %struct.FillBordersContext, ptr %282, i32 0, i32 9
  %284 = load i32, ptr %5, align 4, !tbaa !11
  %285 = sext i32 %284 to i64
  %286 = getelementptr inbounds [4 x i32], ptr %283, i64 0, i64 %285
  %287 = load i32, ptr %286, align 4, !tbaa !11
  %288 = sext i32 %287 to i64
  call void @llvm.memcpy.p0.p0.i64(ptr align 1 %267, ptr align 1 %281, i64 %288, i1 false)
  br label %289

289:                                              ; preds = %246
  %290 = load i32, ptr %6, align 4, !tbaa !11
  %291 = add nsw i32 %290, 1
  store i32 %291, ptr %6, align 4, !tbaa !11
  br label %236, !llvm.loop !125

292:                                              ; preds = %236
  call void @llvm.lifetime.end.p0(i64 8, ptr %9) #8
  call void @llvm.lifetime.end.p0(i64 8, ptr %8) #8
  br label %293

293:                                              ; preds = %292
  %294 = load i32, ptr %5, align 4, !tbaa !11
  %295 = add nsw i32 %294, 1
  store i32 %295, ptr %5, align 4, !tbaa !11
  br label %10, !llvm.loop !126

296:                                              ; preds = %10
  call void @llvm.lifetime.end.p0(i64 4, ptr %7) #8
  call void @llvm.lifetime.end.p0(i64 4, ptr %6) #8
  call void @llvm.lifetime.end.p0(i64 4, ptr %5) #8
  ret void
}