; Function Attrs: nofree norecurse nosync nounwind memory(readwrite, inaccessiblemem: none) uwtable
define internal void @wrap_borders8(ptr noundef readonly captures(none) %0, ptr noundef readonly captures(none) %1) #3 {
  %3 = getelementptr inbounds nuw i8, ptr %0, i64 28
  %4 = load i32, ptr %3, align 4, !tbaa !39
  %5 = icmp sgt i32 %4, 0
  br i1 %5, label %.lr.ph115, label %._crit_edge116

.lr.ph115:                                        ; preds = %2
  %6 = getelementptr inbounds nuw i8, ptr %1, i64 64
  %7 = getelementptr inbounds nuw i8, ptr %0, i64 36
  %8 = getelementptr inbounds nuw i8, ptr %0, i64 116
  %9 = getelementptr inbounds nuw i8, ptr %0, i64 100
  br label %10

10:                                               ; preds = %.lr.ph115, %._crit_edge112
  %indvars.iv127 = phi i64 [ 0, %.lr.ph115 ], [ %indvars.iv.next128, %._crit_edge112 ]
  %11 = getelementptr inbounds nuw [8 x ptr], ptr %1, i64 0, i64 %indvars.iv127
  %12 = load ptr, ptr %11, align 8, !tbaa !62
  %13 = getelementptr inbounds nuw [8 x i32], ptr %6, i64 0, i64 %indvars.iv127
  %14 = load i32, ptr %13, align 4, !tbaa !45
  %15 = sext i32 %14 to i64
  %16 = getelementptr inbounds nuw [4 x %struct.Borders], ptr %7, i64 0, i64 %indvars.iv127
  %17 = getelementptr inbounds nuw i8, ptr %16, i64 8
  %18 = load i32, ptr %17, align 4, !tbaa !55
  %19 = getelementptr inbounds nuw [4 x i32], ptr %8, i64 0, i64 %indvars.iv127
  %20 = getelementptr inbounds nuw i8, ptr %16, i64 12
  %21 = load i32, ptr %19, align 4, !tbaa !45
  %22 = load i32, ptr %20, align 4, !tbaa !56
  %23 = sub nsw i32 %21, %22
  %24 = icmp slt i32 %18, %23
  br i1 %24, label %.preheader100.lr.ph, label %.preheader102

.preheader100.lr.ph:                              ; preds = %10
  %25 = getelementptr inbounds nuw [4 x i32], ptr %9, i64 0, i64 %indvars.iv127
  %26 = getelementptr inbounds nuw i8, ptr %16, i64 4
  %27 = sext i32 %18 to i64
  br label %.preheader100

.preheader102.loopexit:                           ; preds = %._crit_edge
  %.pre = load i32, ptr %17, align 4, !tbaa !55
  br label %.preheader102

.preheader102:                                    ; preds = %.preheader102.loopexit, %10
  %28 = phi i32 [ %75, %.preheader102.loopexit ], [ %22, %10 ]
  %29 = phi i32 [ %.pre, %.preheader102.loopexit ], [ %18, %10 ]
  %30 = icmp sgt i32 %29, 0
  br i1 %30, label %.lr.ph109, label %.preheader101

.lr.ph109:                                        ; preds = %.preheader102
  %31 = getelementptr inbounds nuw [4 x i32], ptr %9, i64 0, i64 %indvars.iv127
  br label %82

.preheader100:                                    ; preds = %.preheader100.lr.ph, %._crit_edge
  %indvars.iv121 = phi i64 [ %27, %.preheader100.lr.ph ], [ %indvars.iv.next122, %._crit_edge ]
  %32 = load i32, ptr %16, align 4, !tbaa !52
  %33 = icmp sgt i32 %32, 0
  br i1 %33, label %.lr.ph, label %.preheader

.lr.ph:                                           ; preds = %.preheader100
  %34 = mul nsw i64 %indvars.iv121, %15
  %35 = getelementptr i8, ptr %12, i64 %34
  br label %40

.preheader:                                       ; preds = %40, %.preheader100
  %36 = load i32, ptr %26, align 4, !tbaa !54
  %37 = icmp sgt i32 %36, 0
  br i1 %37, label %.lr.ph106, label %._crit_edge

.lr.ph106:                                        ; preds = %.preheader
  %38 = mul nsw i64 %indvars.iv121, %15
  %39 = getelementptr i8, ptr %12, i64 %38
  br label %57

40:                                               ; preds = %.lr.ph, %40
  %indvars.iv = phi i64 [ 0, %.lr.ph ], [ %indvars.iv.next, %40 ]
  %41 = phi i32 [ %32, %.lr.ph ], [ %54, %40 ]
  %42 = load i32, ptr %25, align 4, !tbaa !45
  %43 = sext i32 %42 to i64
  %44 = load i32, ptr %26, align 4, !tbaa !54
  %45 = sext i32 %44 to i64
  %46 = sext i32 %41 to i64
  %47 = add i64 %34, %43
  %48 = add nsw i64 %46, %45
  %49 = sub i64 %47, %48
  %50 = getelementptr i8, ptr %12, i64 %49
  %51 = getelementptr i8, ptr %50, i64 %indvars.iv
  %52 = load i8, ptr %51, align 1, !tbaa !58
  %53 = getelementptr i8, ptr %35, i64 %indvars.iv
  store i8 %52, ptr %53, align 1, !tbaa !58
  %indvars.iv.next = add nuw nsw i64 %indvars.iv, 1
  %54 = load i32, ptr %16, align 4, !tbaa !52
  %55 = sext i32 %54 to i64
  %56 = icmp slt i64 %indvars.iv.next, %55
  br i1 %56, label %40, label %.preheader, !llvm.loop !111

57:                                               ; preds = %.lr.ph106, %57
  %indvars.iv118 = phi i64 [ 0, %.lr.ph106 ], [ %indvars.iv.next119, %57 ]
  %58 = phi i32 [ %36, %.lr.ph106 ], [ %71, %57 ]
  %59 = load i32, ptr %16, align 4, !tbaa !52
  %60 = sext i32 %59 to i64
  %61 = getelementptr i8, ptr %39, i64 %60
  %62 = getelementptr i8, ptr %61, i64 %indvars.iv118
  %63 = load i8, ptr %62, align 1, !tbaa !58
  %64 = load i32, ptr %25, align 4, !tbaa !45
  %65 = sext i32 %64 to i64
  %66 = sext i32 %58 to i64
  %67 = sub i64 %38, %66
  %68 = getelementptr i8, ptr %12, i64 %67
  %69 = getelementptr i8, ptr %68, i64 %65
  %70 = getelementptr i8, ptr %69, i64 %indvars.iv118
  store i8 %63, ptr %70, align 1, !tbaa !58
  %indvars.iv.next119 = add nuw nsw i64 %indvars.iv118, 1
  %71 = load i32, ptr %26, align 4, !tbaa !54
  %72 = sext i32 %71 to i64
  %73 = icmp slt i64 %indvars.iv.next119, %72
  br i1 %73, label %57, label %._crit_edge, !llvm.loop !112

._crit_edge:                                      ; preds = %57, %.preheader
  %indvars.iv.next122 = add nsw i64 %indvars.iv121, 1
  %74 = load i32, ptr %19, align 4, !tbaa !45
  %75 = load i32, ptr %20, align 4, !tbaa !56
  %76 = sub nsw i32 %74, %75
  %77 = sext i32 %76 to i64
  %78 = icmp slt i64 %indvars.iv.next122, %77
  br i1 %78, label %.preheader100, label %.preheader102.loopexit, !llvm.loop !113

.preheader101.loopexit:                           ; preds = %82
  %.pre130 = load i32, ptr %20, align 4, !tbaa !56
  br label %.preheader101

.preheader101:                                    ; preds = %.preheader101.loopexit, %.preheader102
  %79 = phi i32 [ %.pre130, %.preheader101.loopexit ], [ %28, %.preheader102 ]
  %80 = icmp sgt i32 %79, 0
  br i1 %80, label %.lr.ph111, label %._crit_edge112

.lr.ph111:                                        ; preds = %.preheader101
  %81 = getelementptr inbounds nuw [4 x i32], ptr %9, i64 0, i64 %indvars.iv127
  br label %100

82:                                               ; preds = %.lr.ph109, %82
  %indvars.iv124 = phi i64 [ 0, %.lr.ph109 ], [ %indvars.iv.next125, %82 ]
  %83 = phi i32 [ %29, %.lr.ph109 ], [ %97, %82 ]
  %84 = mul nsw i64 %indvars.iv124, %15
  %85 = getelementptr inbounds i8, ptr %12, i64 %84
  %86 = load i32, ptr %19, align 4, !tbaa !45
  %87 = load i32, ptr %20, align 4, !tbaa !56
  %88 = trunc nuw nsw i64 %indvars.iv124 to i32
  %89 = add i32 %86, %88
  %90 = add i32 %83, %87
  %91 = sub i32 %89, %90
  %92 = sext i32 %91 to i64
  %93 = mul nsw i64 %92, %15
  %94 = getelementptr inbounds i8, ptr %12, i64 %93
  %95 = load i32, ptr %31, align 4, !tbaa !45
  %96 = sext i32 %95 to i64
  tail call void @llvm.memcpy.p0.p0.i64(ptr align 1 %85, ptr align 1 %94, i64 %96, i1 false)
  %indvars.iv.next125 = add nuw nsw i64 %indvars.iv124, 1
  %97 = load i32, ptr %17, align 4, !tbaa !55
  %98 = sext i32 %97 to i64
  %99 = icmp slt i64 %indvars.iv.next125, %98
  br i1 %99, label %82, label %.preheader101.loopexit, !llvm.loop !114

100:                                              ; preds = %.lr.ph111, %100
  %101 = phi i32 [ %79, %.lr.ph111 ], [ %116, %100 ]
  %.2110 = phi i32 [ 0, %.lr.ph111 ], [ %115, %100 ]
  %102 = load i32, ptr %19, align 4, !tbaa !45
  %103 = sub i32 %.2110, %101
  %104 = add i32 %103, %102
  %105 = sext i32 %104 to i64
  %106 = mul nsw i64 %105, %15
  %107 = getelementptr inbounds i8, ptr %12, i64 %106
  %108 = load i32, ptr %17, align 4, !tbaa !55
  %109 = add nsw i32 %108, %.2110
  %110 = sext i32 %109 to i64
  %111 = mul nsw i64 %110, %15
  %112 = getelementptr inbounds i8, ptr %12, i64 %111
  %113 = load i32, ptr %81, align 4, !tbaa !45
  %114 = sext i32 %113 to i64
  tail call void @llvm.memcpy.p0.p0.i64(ptr align 1 %107, ptr align 1 %112, i64 %114, i1 false)
  %115 = add nuw nsw i32 %.2110, 1
  %116 = load i32, ptr %20, align 4, !tbaa !56
  %117 = icmp slt i32 %115, %116
  br i1 %117, label %100, label %._crit_edge112, !llvm.loop !115

._crit_edge112:                                   ; preds = %100, %.preheader101
  %indvars.iv.next128 = add nuw nsw i64 %indvars.iv127, 1
  %118 = load i32, ptr %3, align 4, !tbaa !39
  %119 = sext i32 %118 to i64
  %120 = icmp slt i64 %indvars.iv.next128, %119
  br i1 %120, label %10, label %._crit_edge116, !llvm.loop !116

._crit_edge116:                                   ; preds = %._crit_edge112, %2
  ret void
}